target datalayout = "e-m:e-p270:32:32-p271:32:32-p272:64:64-i64:64-i128:128-f80:128-n8:16:32:64-S128"
target triple = "x86_64-pc-linux-gnu"

@_ZZN12_GLOBAL__N_16UnwindEPvE4sink = internal global ptr null, align 8
@_ZGVZN12_GLOBAL__N_16UnwindEPvE4sink = internal global i64 0, align 8

; Function Attrs: mustprogress noinline uwtable
define internal void @_ZN12_GLOBAL__N_16UnwindEPv(ptr noundef %0) #14 {
  %2 = alloca ptr, align 8
  %3 = alloca i32, align 4
  %4 = alloca [16 x ptr], align 16
  %5 = alloca [16 x i32], align 16
  store ptr %0, ptr %2, align 8, !tbaa !24
  %6 = load atomic i8, ptr @_ZGVZN12_GLOBAL__N_16UnwindEPvE4sink acquire, align 8
  %7 = icmp eq i8 %6, 0
  br i1 %7, label %8, label %13, !prof !46

8:                                                ; preds = %1
  %9 = call i32 @__cxa_guard_acquire(ptr @_ZGVZN12_GLOBAL__N_16UnwindEPvE4sink) #3
  %10 = icmp ne i32 %9, 0
  br i1 %10, label %11, label %13

11:                                               ; preds = %8
  %12 = load ptr, ptr %2, align 8, !tbaa !24
  store volatile ptr %12, ptr @_ZZN12_GLOBAL__N_16UnwindEPvE4sink, align 8, !tbaa !24
  call void @__cxa_guard_release(ptr @_ZGVZN12_GLOBAL__N_16UnwindEPvE4sink) #3
  br label %13

13:                                               ; preds = %11, %8, %1
  call void @llvm.lifetime.start.p0(i64 4, ptr %3) #3
  store i32 16, ptr %3, align 4, !tbaa !17
  call void @llvm.lifetime.start.p0(i64 128, ptr %4) #3
  call void @llvm.lifetime.start.p0(i64 64, ptr %5) #3
  %14 = getelementptr inbounds [16 x ptr], ptr %4, i64 0, i64 0
  %15 = call noundef i32 @_ZN4absl13GetStackTraceEPPvii(ptr noundef %14, i32 noundef 16, i32 noundef 0)
  %16 = getelementptr inbounds [16 x ptr], ptr %4, i64 0, i64 0
  %17 = getelementptr inbounds [16 x i32], ptr %5, i64 0, i64 0
  %18 = call noundef i32 @_ZN4absl14GetStackFramesEPPvPiii(ptr noundef %16, ptr noundef %17, i32 noundef 16, i32 noundef 0)
  call void @llvm.lifetime.end.p0(i64 64, ptr %5) #3
  call void @llvm.lifetime.end.p0(i64 128, ptr %4) #3
  call void @llvm.lifetime.end.p0(i64 4, ptr %3) #3
  ret void
}