; Function Attrs: mustprogress noinline uwtable
define internal fastcc void @_ZN12_GLOBAL__N_16UnwindEPv(ptr noundef nonnull %0) unnamed_addr #10 {
  %2 = alloca [16 x ptr], align 16
  %3 = alloca [16 x i32], align 16
  %4 = load atomic i8, ptr @_ZGVZN12_GLOBAL__N_16UnwindEPvE4sink acquire, align 8
  %5 = icmp eq i8 %4, 0
  br i1 %5, label %6, label %9, !prof !22

6:                                                ; preds = %1
  %7 = tail call i32 @__cxa_guard_acquire(ptr nonnull @_ZGVZN12_GLOBAL__N_16UnwindEPvE4sink) #14
  %.not = icmp eq i32 %7, 0
  br i1 %.not, label %9, label %8

8:                                                ; preds = %6
  store volatile ptr %0, ptr @_ZZN12_GLOBAL__N_16UnwindEPvE4sink, align 8, !tbaa !23
  tail call void @__cxa_guard_release(ptr nonnull @_ZGVZN12_GLOBAL__N_16UnwindEPvE4sink) #14
  br label %9

9:                                                ; preds = %8, %6, %1
  call void @llvm.lifetime.start.p0(i64 128, ptr nonnull %2) #14
  call void @llvm.lifetime.start.p0(i64 64, ptr nonnull %3) #14
  %10 = call noundef i32 @_ZN4absl13GetStackTraceEPPvii(ptr noundef nonnull %2, i32 noundef 16, i32 noundef 0)
  %11 = call noundef i32 @_ZN4absl14GetStackFramesEPPvPiii(ptr noundef nonnull %2, ptr noundef nonnull %3, i32 noundef 16, i32 noundef 0)
  call void @llvm.lifetime.end.p0(i64 64, ptr nonnull %3) #14
  call void @llvm.lifetime.end.p0(i64 128, ptr nonnull %2) #14
  ret void
}